; Function Attrs: inlinehint mustprogress nounwind optsize uwtable
define internal noundef nonnull ptr @_ZZN8nanobind6detail11func_createILb0ELb1EZNS_4initIJEE7executeINS_6class_I6AnimalJZL30nanobind_init_test_classes_extRNS_7module_EE8PyAnimalEEEJA14_cEEEvRT_DpRKT0_EUlNS_18pointer_and_handleIS6_EEE_vJSJ_EJLm0EEJNS_5scopeENS_4nameENS_9is_methodESB_EEEP7_objectOT1_PFT2_DpT3_ESt16integer_sequenceImJXspT4_EEEDpRKT5_ENUlPvPSP_PhNS_9rv_policyEPNS0_12cleanup_listEE_8__invokeES13_S14_S15_S16_S18_(ptr readnone captures(none) %0, ptr noundef readonly captures(none) %1, ptr noundef readonly captures(none) %2, i32 %3, ptr noundef %4) #20 align 2 personality ptr @__gxx_personality_v0 {
  %6 = alloca %"struct.nanobind::detail::type_caster.325", align 8
  %7 = load ptr, ptr %1, align 8, !tbaa !23
  %8 = load i8, ptr %2, align 1, !tbaa !61
  call void @llvm.lifetime.start.p0(i64 8, ptr nonnull %6) #37
  %9 = and i8 %8, 8
  %.not.i.i = icmp eq i8 %9, 0
  %10 = and i8 %8, -2
  %spec.select.i.i = select i1 %.not.i.i, i8 %8, i8 %10
  %11 = call noundef zeroext i1 @_ZN8nanobind6detail11nb_type_getEPKSt9type_infoP7_objecthPNS0_12cleanup_listEPPv(ptr noundef nonnull @_ZTI6Animal, ptr noundef %7, i8 noundef zeroext %spec.select.i.i, ptr noundef %4, ptr noundef nonnull align 8 dereferenceable(8) %6) #35
  br i1 %11, label %12, label %_ZN8nanobind6detail11type_casterINS_18pointer_and_handleI6AnimalEEiE11from_pythonENS_6handleEhPNS0_12cleanup_listE.exit

_ZN8nanobind6detail11type_casterINS_18pointer_and_handleI6AnimalEEiE11from_pythonENS_6handleEhPNS0_12cleanup_listE.exit: ; preds = %5
  call void @llvm.lifetime.end.p0(i64 8, ptr nonnull %6) #37
  br label %_ZZN8nanobind6detail11func_createILb0ELb1EZNS_4initIJEE7executeINS_6class_I6AnimalJZL30nanobind_init_test_classes_extRNS_7module_EE8PyAnimalEEEJA14_cEEEvRT_DpRKT0_EUlNS_18pointer_and_handleIS6_EEE_vJSJ_EJLm0EEJNS_5scopeENS_4nameENS_9is_methodESB_EEEP7_objectOT1_PFT2_DpT3_ESt16integer_sequenceImJXspT4_EEEDpRKT5_ENKUlPvPSP_PhNS_9rv_policyEPNS0_12cleanup_listEE_clES13_S14_S15_S16_S18_.exit

12:                                               ; preds = %5
  %13 = load ptr, ptr %6, align 8, !tbaa !268
  call void @llvm.lifetime.end.p0(i64 8, ptr nonnull %6) #37
  store ptr getelementptr inbounds nuw inrange(-16, 40) (i8, ptr @_ZTVZL30nanobind_init_test_classes_extRN8nanobind7module_EE8PyAnimal, i64 16), ptr %13, align 8, !tbaa !24
  %14 = getelementptr inbounds nuw i8, ptr %13, i64 8
  call void @_ZN8nanobind6detail14trampoline_newEPPvmS1_(ptr noundef nonnull align 8 dereferenceable(56) %14, i64 noundef 3, ptr noundef nonnull align 8 dereferenceable(64) %13) #35
  %15 = load i32, ptr @_ZL19default_constructed, align 4, !tbaa !32
  %16 = add nsw i32 %15, 1
  store i32 %16, ptr @_ZL19default_constructed, align 4, !tbaa !32
  %17 = load i64, ptr @_Py_NoneStruct, align 8, !tbaa !86
  %18 = add nsw i64 %17, 1
  store i64 %18, ptr @_Py_NoneStruct, align 8, !tbaa !86
  br label %_ZZN8nanobind6detail11func_createILb0ELb1EZNS_4initIJEE7executeINS_6class_I6AnimalJZL30nanobind_init_test_classes_extRNS_7module_EE8PyAnimalEEEJA14_cEEEvRT_DpRKT0_EUlNS_18pointer_and_handleIS6_EEE_vJSJ_EJLm0EEJNS_5scopeENS_4nameENS_9is_methodESB_EEEP7_objectOT1_PFT2_DpT3_ESt16integer_sequenceImJXspT4_EEEDpRKT5_ENKUlPvPSP_PhNS_9rv_policyEPNS0_12cleanup_listEE_clES13_S14_S15_S16_S18_.exit

_ZZN8nanobind6detail11func_createILb0ELb1EZNS_4initIJEE7executeINS_6class_I6AnimalJZL30nanobind_init_test_classes_extRNS_7module_EE8PyAnimalEEEJA14_cEEEvRT_DpRKT0_EUlNS_18pointer_and_handleIS6_EEE_vJSJ_EJLm0EEJNS_5scopeENS_4nameENS_9is_methodESB_EEEP7_objectOT1_PFT2_DpT3_ESt16integer_sequenceImJXspT4_EEEDpRKT5_ENKUlPvPSP_PhNS_9rv_policyEPNS0_12cleanup_listEE_clES13_S14_S15_S16_S18_.exit: ; preds = %_ZN8nanobind6detail11type_casterINS_18pointer_and_handleI6AnimalEEiE11from_pythonENS_6handleEhPNS0_12cleanup_listE.exit, %12
  %.0.i = phi ptr [ @_Py_NoneStruct, %12 ], [ inttoptr (i64 1 to ptr), %_ZN8nanobind6detail11type_casterINS_18pointer_and_handleI6AnimalEEiE11from_pythonENS_6handleEhPNS0_12cleanup_listE.exit ]
  ret ptr %.0.i
}